target datalayout = "e-m:e-p270:32:32-p271:32:32-p272:64:64-i64:64-i128:128-f80:128-n8:16:32:64-S128"
target triple = "x86_64-pc-linux-gnu"

%struct.CRYPTO_REF_COUNT = type { i32 }
%struct.evp_pkey_st = type { i32, i32, ptr, ptr, ptr, %union.legacy_pkey_st, %union.legacy_pkey_st, %struct.CRYPTO_REF_COUNT, ptr, ptr, i32, i8, %struct.crypto_ex_data_st, ptr, ptr, i64, ptr, i64, %struct.anon.5 }
%union.legacy_pkey_st = type { ptr }
%struct.crypto_ex_data_st = type { ptr, ptr }
%struct.anon.5 = type { i32, i32, i32 }
%struct.fake_import_data_st = type { ptr, ptr }
%struct.evp_pkey_asn1_method_st = type { i32, i32, i64, ptr, ptr, ptr, ptr, ptr, ptr, ptr, ptr, ptr, ptr, ptr, ptr, ptr, ptr, ptr, ptr, ptr, ptr, ptr, ptr, ptr, ptr, ptr, ptr, ptr, ptr, ptr, ptr, ptr, ptr, ptr, ptr, ptr, ptr, ptr, ptr, ptr, ptr }

@.str = private unnamed_addr constant [33 x i8] c"../openssl/crypto/evp/pmeth_gn.c\00", align 1
@__func__.EVP_PKEY_export = private unnamed_addr constant [16 x i8] c"EVP_PKEY_export\00", align 1

; Function Attrs: nounwind uwtable
define i32 @EVP_PKEY_export(ptr noundef %0, i32 noundef %1, ptr noundef %2, ptr noundef %3) #0 {
  %5 = alloca i32, align 4
  %6 = alloca ptr, align 8
  %7 = alloca i32, align 4
  %8 = alloca ptr, align 8
  %9 = alloca ptr, align 8
  %10 = alloca %struct.fake_import_data_st, align 8
  store ptr %0, ptr %6, align 8, !tbaa !36
  store i32 %1, ptr %7, align 4, !tbaa !8
  store ptr %2, ptr %8, align 8, !tbaa !43
  store ptr %3, ptr %9, align 8, !tbaa !43
  %11 = load ptr, ptr %6, align 8, !tbaa !36
  %12 = icmp eq ptr %11, null
  br i1 %12, label %13, label %14

13:                                               ; preds = %4
  call void @ERR_new()
  call void @ERR_set_debug(ptr noundef @.str, i32 noundef 442, ptr noundef @__func__.EVP_PKEY_export)
  call void (i32, i32, ptr, ...) @ERR_set_error(i32 noundef 6, i32 noundef 786690, ptr noundef null)
  store i32 0, ptr %5, align 4
  br label %42

14:                                               ; preds = %4
  %15 = load ptr, ptr %6, align 8, !tbaa !36
  %16 = getelementptr inbounds nuw %struct.evp_pkey_st, ptr %15, i32 0, i32 0
  %17 = load i32, ptr %16, align 8, !tbaa !45
  %18 = icmp ne i32 %17, 0
  br i1 %18, label %19, label %36

19:                                               ; preds = %14
  %20 = load ptr, ptr %6, align 8, !tbaa !36
  %21 = getelementptr inbounds nuw %struct.evp_pkey_st, ptr %20, i32 0, i32 13
  %22 = load ptr, ptr %21, align 8, !tbaa !53
  %23 = icmp eq ptr %22, null
  br i1 %23, label %24, label %36

24:                                               ; preds = %19
  call void @llvm.lifetime.start.p0(i64 16, ptr %10) #4
  %25 = load ptr, ptr %8, align 8, !tbaa !43
  %26 = getelementptr inbounds nuw %struct.fake_import_data_st, ptr %10, i32 0, i32 0
  store ptr %25, ptr %26, align 8, !tbaa !64
  %27 = load ptr, ptr %9, align 8, !tbaa !43
  %28 = getelementptr inbounds nuw %struct.fake_import_data_st, ptr %10, i32 0, i32 1
  store ptr %27, ptr %28, align 8, !tbaa !66
  %29 = load ptr, ptr %6, align 8, !tbaa !36
  %30 = getelementptr inbounds nuw %struct.evp_pkey_st, ptr %29, i32 0, i32 2
  %31 = load ptr, ptr %30, align 8, !tbaa !67
  %32 = getelementptr inbounds nuw %struct.evp_pkey_asn1_method_st, ptr %31, i32 0, i32 37
  %33 = load ptr, ptr %32, align 8, !tbaa !68
  %34 = load ptr, ptr %6, align 8, !tbaa !36
  %35 = call i32 %33(ptr noundef %34, ptr noundef %10, ptr noundef @pkey_fake_import, ptr noundef null, ptr noundef null)
  store i32 %35, ptr %5, align 4
  call void @llvm.lifetime.end.p0(i64 16, ptr %10) #4
  br label %42

36:                                               ; preds = %19, %14
  %37 = load ptr, ptr %6, align 8, !tbaa !36
  %38 = load i32, ptr %7, align 4, !tbaa !8
  %39 = load ptr, ptr %8, align 8, !tbaa !43
  %40 = load ptr, ptr %9, align 8, !tbaa !43
  %41 = call i32 @evp_keymgmt_util_export(ptr noundef %37, i32 noundef %38, ptr noundef %39, ptr noundef %40)
  store i32 %41, ptr %5, align 4
  br label %42

42:                                               ; preds = %36, %24, %13
  %43 = load i32, ptr %5, align 4
  ret i32 %43
}