; Function Attrs: nounwind uwtable
define i32 @EVP_PKEY_export(ptr noundef %0, i32 noundef %1, ptr noundef %2, ptr noundef %3) local_unnamed_addr #0 {
  %5 = alloca %struct.fake_import_data_st, align 8
  %6 = icmp eq ptr %0, null
  br i1 %6, label %7, label %8

7:                                                ; preds = %4
  tail call void @ERR_new() #6
  tail call void @ERR_set_debug(ptr noundef nonnull @.str, i32 noundef 442, ptr noundef nonnull @__func__.EVP_PKEY_export) #6
  tail call void (i32, i32, ptr, ...) @ERR_set_error(i32 noundef 6, i32 noundef 786690, ptr noundef null) #6
  br label %23

8:                                                ; preds = %4
  %9 = load i32, ptr %0, align 8, !tbaa !39
  %.not = icmp eq i32 %9, 0
  br i1 %.not, label %21, label %10

10:                                               ; preds = %8
  %11 = getelementptr inbounds nuw i8, ptr %0, i64 96
  %12 = load ptr, ptr %11, align 8, !tbaa !47
  %13 = icmp eq ptr %12, null
  br i1 %13, label %14, label %21

14:                                               ; preds = %10
  call void @llvm.lifetime.start.p0(i64 16, ptr nonnull %5) #6
  store ptr %2, ptr %5, align 8, !tbaa !52
  %15 = getelementptr inbounds nuw i8, ptr %5, i64 8
  store ptr %3, ptr %15, align 8, !tbaa !54
  %16 = getelementptr inbounds nuw i8, ptr %0, i64 8
  %17 = load ptr, ptr %16, align 8, !tbaa !55
  %18 = getelementptr inbounds nuw i8, ptr %17, i64 288
  %19 = load ptr, ptr %18, align 8, !tbaa !56
  %20 = call i32 %19(ptr noundef nonnull %0, ptr noundef nonnull %5, ptr noundef nonnull @pkey_fake_import, ptr noundef null, ptr noundef null) #6
  call void @llvm.lifetime.end.p0(i64 16, ptr nonnull %5) #6
  br label %23

21:                                               ; preds = %10, %8
  %22 = tail call i32 @evp_keymgmt_util_export(ptr noundef nonnull %0, i32 noundef %1, ptr noundef %2, ptr noundef %3) #6
  br label %23

23:                                               ; preds = %21, %14, %7
  %.0 = phi i32 [ 0, %7 ], [ %20, %14 ], [ %22, %21 ]
  ret i32 %.0
}